; Function Attrs: nounwind uwtable
define hidden noalias ptr @mi_heap_alloc_new(ptr noundef %0, i64 noundef %1) local_unnamed_addr #3 {
  %3 = icmp ult i64 %1, 1025
  br i1 %3, label %4, label %mi_heap_malloc.exit, !prof !8

4:                                                ; preds = %2
  %5 = add nuw nsw i64 %1, 7
  %6 = lshr i64 %5, 3
  %7 = getelementptr inbounds nuw i8, ptr %0, i64 232
  %8 = getelementptr inbounds nuw [129 x ptr], ptr %7, i64 0, i64 %6
  %9 = load ptr, ptr %8, align 8, !tbaa !9
  %10 = getelementptr inbounds nuw i8, ptr %9, i64 16
  %11 = load ptr, ptr %10, align 8, !tbaa !11
  %12 = icmp eq ptr %11, null
  br i1 %12, label %mi_heap_malloc.exit, label %mi_heap_malloc.exit.thread, !prof !18

mi_heap_malloc.exit.thread:                       ; preds = %4
  %.val.i.i.i.i.i = load i64, ptr %11, align 8, !tbaa !19
  %13 = inttoptr i64 %.val.i.i.i.i.i to ptr
  store ptr %13, ptr %10, align 8, !tbaa !11
  %14 = getelementptr inbounds nuw i8, ptr %9, i64 32
  %15 = load i16, ptr %14, align 8, !tbaa !21
  %16 = add i16 %15, 1
  store i16 %16, ptr %14, align 8, !tbaa !21
  br label %21

mi_heap_malloc.exit:                              ; preds = %2, %4
  %17 = tail call noalias ptr @_mi_malloc_generic(ptr noundef %0, i64 noundef %1, i1 noundef zeroext false, i64 noundef 0) #19
  %18 = icmp eq ptr %17, null
  br i1 %18, label %19, label %21, !prof !26

19:                                               ; preds = %mi_heap_malloc.exit
  %20 = tail call ptr @mi_heap_try_new(ptr noundef %0, i64 noundef %1, i1 noundef zeroext false) #20
  br label %21

21:                                               ; preds = %mi_heap_malloc.exit.thread, %mi_heap_malloc.exit, %19
  %.0 = phi ptr [ %20, %19 ], [ %17, %mi_heap_malloc.exit ], [ %11, %mi_heap_malloc.exit.thread ]
  ret ptr %.0
}